; Function Attrs: nounwind uwtable
define range(i32 -32, 1) i32 @pmix20_bfrop_print_bool(ptr noundef %0, ptr noundef %1, ptr noundef readonly captures(address_is_null) %2, i16 noundef zeroext %3) local_unnamed_addr #0 {
  %5 = alloca ptr, align 8
  call void @llvm.lifetime.start.p0(i64 8, ptr nonnull %5) #7
  %6 = icmp eq ptr %1, null
  br i1 %6, label %7, label %10

7:                                                ; preds = %4
  %8 = call i32 (ptr, ptr, ...) @asprintf(ptr noundef nonnull %5, ptr noundef nonnull @.str) #7
  %9 = icmp slt i32 %8, 0
  br i1 %9, label %27, label %11

10:                                               ; preds = %4
  store ptr %1, ptr %5, align 8, !tbaa !20
  br label %11

11:                                               ; preds = %7, %10
  %12 = icmp eq ptr %2, null
  br i1 %12, label %13, label %19

13:                                               ; preds = %11
  %14 = load ptr, ptr %5, align 8, !tbaa !20
  %15 = call i32 (ptr, ptr, ...) @asprintf(ptr noundef %0, ptr noundef nonnull @.str.1, ptr noundef %14) #7
  %16 = icmp slt i32 %15, 0
  br i1 %16, label %27, label %17

17:                                               ; preds = %13
  %18 = load ptr, ptr %5, align 8, !tbaa !20
  %.not13 = icmp eq ptr %18, %1
  br i1 %.not13, label %27, label %.sink.split

19:                                               ; preds = %11
  %20 = load i8, ptr %2, align 1, !tbaa !21, !range !23, !noundef !24
  %21 = trunc nuw i8 %20 to i1
  %22 = select i1 %21, ptr @.str.3, ptr @.str.4
  %23 = call i32 (ptr, ptr, ...) @asprintf(ptr noundef %0, ptr noundef nonnull @.str.2, ptr noundef %1, ptr noundef nonnull %22) #7
  %24 = icmp slt i32 %23, 0
  br i1 %24, label %27, label %25

25:                                               ; preds = %19
  %26 = load ptr, ptr %5, align 8, !tbaa !20
  %.not = icmp eq ptr %26, %1
  br i1 %.not, label %27, label %.sink.split

.sink.split:                                      ; preds = %25, %17
  %.sink = phi ptr [ %18, %17 ], [ %26, %25 ]
  call void @free(ptr noundef %.sink) #7
  br label %27

27:                                               ; preds = %.sink.split, %25, %19, %17, %13, %7
  %.0 = phi i32 [ -32, %7 ], [ -32, %13 ], [ 0, %17 ], [ -32, %19 ], [ 0, %25 ], [ 0, %.sink.split ]
  call void @llvm.lifetime.end.p0(i64 8, ptr nonnull %5) #7
  ret i32 %.0
}